target datalayout = "e-m:e-p270:32:32-p271:32:32-p272:64:64-i64:64-i128:128-f80:128-n8:16:32:64-S128"
target triple = "x86_64-pc-linux-gnu"

%struct.ggml_tensor = type { i32, ptr, [4 x i64], [4 x i64], i32, [16 x i32], i32, [10 x ptr], ptr, i64, ptr, [64 x i8], ptr, [8 x i8] }

@.str.12 = private unnamed_addr constant [113 x i8] c"generated/home/dtcxzyw/WorkSpace/Projects/compilers/llvm-opt-benchmark/bench/llama.cpp/llama.cpp/ggml/src/ggml.c\00", align 1
@.str.13 = private unnamed_addr constant [23 x i8] c"GGML_ASSERT(%s) failed\00", align 1
@.str.85 = private unnamed_addr constant [21 x i8] c"a->ne[3] == b->ne[2]\00", align 1

; Function Attrs: nounwind uwtable
define internal void @ggml_set_op_params_i32(ptr noundef %0, i32 noundef %1, i32 noundef %2) #5 {
  %4 = alloca ptr, align 8
  %5 = alloca i32, align 4
  %6 = alloca i32, align 4
  store ptr %0, ptr %4, align 8, !tbaa !54
  store i32 %1, ptr %5, align 4, !tbaa !8
  store i32 %2, ptr %6, align 4, !tbaa !8
  %7 = load i32, ptr %6, align 4, !tbaa !8
  %8 = load ptr, ptr %4, align 8, !tbaa !54
  %9 = getelementptr inbounds nuw %struct.ggml_tensor, ptr %8, i32 0, i32 5
  %10 = getelementptr inbounds [16 x i32], ptr %9, i64 0, i64 0
  %11 = load i32, ptr %5, align 4, !tbaa !8
  %12 = zext i32 %11 to i64
  %13 = getelementptr inbounds nuw i32, ptr %10, i64 %12
  store i32 %7, ptr %13, align 4, !tbaa !8
  ret void
}

; Function Attrs: nounwind uwtable
define ptr @ggml_new_tensor(ptr noundef %0, i32 noundef %1, i32 noundef %2, ptr noundef %3) #5 {
  %5 = alloca ptr, align 8
  %6 = alloca i32, align 4
  %7 = alloca i32, align 4
  %8 = alloca ptr, align 8
  store ptr %0, ptr %5, align 8, !tbaa !48
  store i32 %1, ptr %6, align 4, !tbaa !8
  store i32 %2, ptr %7, align 4, !tbaa !8
  store ptr %3, ptr %8, align 8, !tbaa !88
  %9 = load ptr, ptr %5, align 8, !tbaa !48
  %10 = load i32, ptr %6, align 4, !tbaa !8
  %11 = load i32, ptr %7, align 4, !tbaa !8
  %12 = load ptr, ptr %8, align 8, !tbaa !88
  %13 = call ptr @ggml_new_tensor_impl(ptr noundef %9, i32 noundef %10, i32 noundef %11, ptr noundef %12, ptr noundef null, i64 noundef 0)
  ret ptr %13
}

; Function Attrs: nounwind uwtable
define internal i64 @ggml_calc_conv_transpose_output_size(i64 noundef %0, i64 noundef %1, i32 noundef %2, i32 noundef %3) #5 {
  %5 = alloca i64, align 8
  %6 = alloca i64, align 8
  %7 = alloca i32, align 4
  %8 = alloca i32, align 4
  store i64 %0, ptr %5, align 8, !tbaa !19
  store i64 %1, ptr %6, align 8, !tbaa !19
  store i32 %2, ptr %7, align 4, !tbaa !8
  store i32 %3, ptr %8, align 4, !tbaa !8
  %9 = load i64, ptr %5, align 8, !tbaa !19
  %10 = sub nsw i64 %9, 1
  %11 = load i32, ptr %7, align 4, !tbaa !8
  %12 = sext i32 %11 to i64
  %13 = mul nsw i64 %10, %12
  %14 = load i32, ptr %8, align 4, !tbaa !8
  %15 = mul nsw i32 2, %14
  %16 = sext i32 %15 to i64
  %17 = sub nsw i64 %13, %16
  %18 = load i64, ptr %6, align 8, !tbaa !19
  %19 = add nsw i64 %17, %18
  ret i64 %19
}

; Function Attrs: nounwind uwtable
define ptr @ggml_conv_transpose_2d_p0(ptr noundef %0, ptr noundef %1, ptr noundef %2, i32 noundef %3) #5 {
  %5 = alloca ptr, align 8
  %6 = alloca ptr, align 8
  %7 = alloca ptr, align 8
  %8 = alloca i32, align 4
  %9 = alloca [4 x i64], align 16
  %10 = alloca ptr, align 8
  store ptr %0, ptr %5, align 8, !tbaa !48
  store ptr %1, ptr %6, align 8, !tbaa !54
  store ptr %2, ptr %7, align 8, !tbaa !54
  store i32 %3, ptr %8, align 4, !tbaa !8
  %11 = load ptr, ptr %6, align 8, !tbaa !54
  %12 = getelementptr inbounds nuw %struct.ggml_tensor, ptr %11, i32 0, i32 2
  %13 = getelementptr inbounds [4 x i64], ptr %12, i64 0, i64 3
  %14 = load i64, ptr %13, align 8, !tbaa !19
  %15 = load ptr, ptr %7, align 8, !tbaa !54
  %16 = getelementptr inbounds nuw %struct.ggml_tensor, ptr %15, i32 0, i32 2
  %17 = getelementptr inbounds [4 x i64], ptr %16, i64 0, i64 2
  %18 = load i64, ptr %17, align 8, !tbaa !19
  %19 = icmp eq i64 %14, %18
  br i1 %19, label %21, label %20

20:                                               ; preds = %4
  call void (ptr, i32, ptr, ...) @ggml_abort(ptr noundef @.str.12, i32 noundef 4032, ptr noundef @.str.13, ptr noundef @.str.85) #18
  unreachable

21:                                               ; preds = %4
  call void @llvm.lifetime.start.p0(i64 32, ptr %9) #14
  %22 = load ptr, ptr %7, align 8, !tbaa !54
  %23 = getelementptr inbounds nuw %struct.ggml_tensor, ptr %22, i32 0, i32 2
  %24 = getelementptr inbounds [4 x i64], ptr %23, i64 0, i64 0
  %25 = load i64, ptr %24, align 8, !tbaa !19
  %26 = load ptr, ptr %6, align 8, !tbaa !54
  %27 = getelementptr inbounds nuw %struct.ggml_tensor, ptr %26, i32 0, i32 2
  %28 = getelementptr inbounds [4 x i64], ptr %27, i64 0, i64 0
  %29 = load i64, ptr %28, align 8, !tbaa !19
  %30 = load i32, ptr %8, align 4, !tbaa !8
  %31 = call i64 @ggml_calc_conv_transpose_output_size(i64 noundef %25, i64 noundef %29, i32 noundef %30, i32 noundef 0)
  store i64 %31, ptr %9, align 8, !tbaa !19
  %32 = getelementptr inbounds i64, ptr %9, i64 1
  %33 = load ptr, ptr %7, align 8, !tbaa !54
  %34 = getelementptr inbounds nuw %struct.ggml_tensor, ptr %33, i32 0, i32 2
  %35 = getelementptr inbounds [4 x i64], ptr %34, i64 0, i64 1
  %36 = load i64, ptr %35, align 8, !tbaa !19
  %37 = load ptr, ptr %6, align 8, !tbaa !54
  %38 = getelementptr inbounds nuw %struct.ggml_tensor, ptr %37, i32 0, i32 2
  %39 = getelementptr inbounds [4 x i64], ptr %38, i64 0, i64 1
  %40 = load i64, ptr %39, align 8, !tbaa !19
  %41 = load i32, ptr %8, align 4, !tbaa !8
  %42 = call i64 @ggml_calc_conv_transpose_output_size(i64 noundef %36, i64 noundef %40, i32 noundef %41, i32 noundef 0)
  store i64 %42, ptr %32, align 8, !tbaa !19
  %43 = getelementptr inbounds i64, ptr %9, i64 2
  %44 = load ptr, ptr %6, align 8, !tbaa !54
  %45 = getelementptr inbounds nuw %struct.ggml_tensor, ptr %44, i32 0, i32 2
  %46 = getelementptr inbounds [4 x i64], ptr %45, i64 0, i64 2
  %47 = load i64, ptr %46, align 8, !tbaa !19
  store i64 %47, ptr %43, align 8, !tbaa !19
  %48 = getelementptr inbounds i64, ptr %9, i64 3
  %49 = load ptr, ptr %7, align 8, !tbaa !54
  %50 = getelementptr inbounds nuw %struct.ggml_tensor, ptr %49, i32 0, i32 2
  %51 = getelementptr inbounds [4 x i64], ptr %50, i64 0, i64 3
  %52 = load i64, ptr %51, align 8, !tbaa !19
  store i64 %52, ptr %48, align 8, !tbaa !19
  call void @llvm.lifetime.start.p0(i64 8, ptr %10) #14
  %53 = load ptr, ptr %5, align 8, !tbaa !48
  %54 = getelementptr inbounds [4 x i64], ptr %9, i64 0, i64 0
  %55 = call ptr @ggml_new_tensor(ptr noundef %53, i32 noundef 0, i32 noundef 4, ptr noundef %54)
  store ptr %55, ptr %10, align 8, !tbaa !54
  %56 = load ptr, ptr %10, align 8, !tbaa !54
  %57 = load i32, ptr %8, align 4, !tbaa !8
  call void @ggml_set_op_params_i32(ptr noundef %56, i32 noundef 0, i32 noundef %57)
  %58 = load ptr, ptr %10, align 8, !tbaa !54
  %59 = getelementptr inbounds nuw %struct.ggml_tensor, ptr %58, i32 0, i32 4
  store i32 50, ptr %59, align 8, !tbaa !68
  %60 = load ptr, ptr %6, align 8, !tbaa !54
  %61 = load ptr, ptr %10, align 8, !tbaa !54
  %62 = getelementptr inbounds nuw %struct.ggml_tensor, ptr %61, i32 0, i32 7
  %63 = getelementptr inbounds [10 x ptr], ptr %62, i64 0, i64 0
  store ptr %60, ptr %63, align 8, !tbaa !54
  %64 = load ptr, ptr %7, align 8, !tbaa !54
  %65 = load ptr, ptr %10, align 8, !tbaa !54
  %66 = getelementptr inbounds nuw %struct.ggml_tensor, ptr %65, i32 0, i32 7
  %67 = getelementptr inbounds [10 x ptr], ptr %66, i64 0, i64 1
  store ptr %64, ptr %67, align 8, !tbaa !54
  %68 = load ptr, ptr %10, align 8, !tbaa !54
  call void @llvm.lifetime.end.p0(i64 8, ptr %10) #14
  call void @llvm.lifetime.end.p0(i64 32, ptr %9) #14
  ret ptr %68
}