; Function Attrs: nounwind uwtable
define noundef ptr @ggml_conv_transpose_2d_p0(ptr noundef captures(none) %0, ptr noundef %1, ptr noundef %2, i32 noundef %3) local_unnamed_addr #4 {
  %5 = alloca [4 x i64], align 16
  %6 = getelementptr inbounds nuw i8, ptr %1, i64 40
  %7 = load i64, ptr %6, align 8, !tbaa !39
  %8 = getelementptr inbounds nuw i8, ptr %2, i64 32
  %9 = load i64, ptr %8, align 8, !tbaa !39
  %10 = icmp eq i64 %7, %9
  br i1 %10, label %12, label %11

11:                                               ; preds = %4
  tail call void (ptr, i32, ptr, ...) @ggml_abort(ptr noundef nonnull @.str.12, i32 noundef 4032, ptr noundef nonnull @.str.13, ptr noundef nonnull @.str.85) #47
  unreachable

12:                                               ; preds = %4
  %13 = getelementptr inbounds nuw i8, ptr %2, i64 16
  %14 = getelementptr inbounds nuw i8, ptr %1, i64 16
  call void @llvm.lifetime.start.p0(i64 32, ptr nonnull %5) #42
  %15 = load i64, ptr %13, align 8, !tbaa !39
  %16 = load i64, ptr %14, align 8, !tbaa !39
  %17 = add nsw i64 %15, -1
  %18 = sext i32 %3 to i64
  %19 = mul nsw i64 %17, %18
  %20 = add nsw i64 %19, %16
  store i64 %20, ptr %5, align 16, !tbaa !39
  %21 = getelementptr inbounds nuw i8, ptr %5, i64 8
  %22 = getelementptr inbounds nuw i8, ptr %2, i64 24
  %23 = load i64, ptr %22, align 8, !tbaa !39
  %24 = getelementptr inbounds nuw i8, ptr %1, i64 24
  %25 = load i64, ptr %24, align 8, !tbaa !39
  %26 = add nsw i64 %23, -1
  %27 = mul nsw i64 %26, %18
  %28 = add nsw i64 %27, %25
  store i64 %28, ptr %21, align 8, !tbaa !39
  %29 = getelementptr inbounds nuw i8, ptr %5, i64 16
  %30 = getelementptr inbounds nuw i8, ptr %1, i64 32
  %31 = load i64, ptr %30, align 8, !tbaa !39
  store i64 %31, ptr %29, align 16, !tbaa !39
  %32 = getelementptr inbounds nuw i8, ptr %5, i64 24
  %33 = getelementptr inbounds nuw i8, ptr %2, i64 40
  %34 = load i64, ptr %33, align 8, !tbaa !39
  store i64 %34, ptr %32, align 8, !tbaa !39
  %35 = call fastcc noundef ptr @ggml_new_tensor_impl(ptr noundef %0, i32 noundef 0, i32 noundef 4, ptr noundef nonnull readonly %5, ptr noundef null, i64 noundef 0)
  %36 = getelementptr inbounds nuw i8, ptr %35, i64 84
  store i32 %3, ptr %36, align 4, !tbaa !8
  %37 = getelementptr inbounds nuw i8, ptr %35, i64 80
  store i32 50, ptr %37, align 8, !tbaa !55
  %38 = getelementptr inbounds nuw i8, ptr %35, i64 152
  store ptr %1, ptr %38, align 8, !tbaa !81
  %39 = getelementptr inbounds nuw i8, ptr %35, i64 160
  store ptr %2, ptr %39, align 8, !tbaa !81
  call void @llvm.lifetime.end.p0(i64 32, ptr nonnull %5) #42
  ret ptr %35
}